target datalayout = "e-m:e-p270:32:32-p271:32:32-p272:64:64-i64:64-i128:128-f80:128-n8:16:32:64-S128"
target triple = "x86_64-pc-linux-gnu"

%struct.GlobalContext = type { %struct.HTable, ptr, ptr, ptr, ptr, ptr, ptr, ptr, ptr, i8, i32, i32, i32, ptr, ptr, %struct.HTable, %struct.HTable, %struct.Module_, %struct.DeclTable, %struct.DeclTable, %struct.Path_, ptr, ptr, ptr, ptr, ptr, ptr, ptr, [65536 x ptr], ptr, ptr, ptr }
%struct.HTable = type { i32, ptr }
%struct.Module_ = type { ptr, ptr, ptr, i16, i32, ptr, %struct.HTable, ptr, ptr, ptr, ptr, ptr, ptr, ptr, ptr, ptr }
%struct.DeclTable = type { i32, i32, i32, ptr }
%struct.Path_ = type { %union.SourceSpan, ptr, i32 }
%union.SourceSpan = type { i64 }
%struct.Decl_ = type { ptr, ptr, %union.SourceSpan, i64, %union.anon, i32, %union.anon.0, i64, ptr, ptr, ptr, %union.anon.1 }
%union.anon = type { ptr }
%union.anon.0 = type { i16 }
%union.anon.1 = type { %struct.FuncDecl }
%struct.FuncDecl = type { i32, [4 x i8], %struct.Signature_, i32, i32, %union.anon.8 }
%struct.Signature_ = type <{ %struct.CalleeAttributes, i16, i8, i32, i32, [4 x i8], ptr }>
%struct.CalleeAttributes = type { i8 }
%union.anon.8 = type { %struct.anon.9 }
%struct.anon.9 = type { i16, %union.anon.10 }
%union.anon.10 = type { ptr }
%struct.NameResolve = type { ptr, ptr, ptr, ptr, %union.SourceSpan, ptr, i8, i8 }

@global_context = external global %struct.GlobalContext, align 8
@.str.7 = private unnamed_addr constant [49 x i8] c"The %s '%s::%s' is not visible from this module.\00", align 1
@.str.8 = private unnamed_addr constant [45 x i8] c"The %s '%s' is not visible from this module.\00", align 1
@.str.9 = private unnamed_addr constant [73 x i8] c"Did you mean the %s '%s::%s' in module %s? If so please add 'import %s'.\00", align 1
@.str.10 = private unnamed_addr constant [69 x i8] c"Did you mean the %s '%s' in module %s? If so please add 'import %s'.\00", align 1
@.str.11 = private unnamed_addr constant [111 x i8] c"The %s '%s::%s' is defined in both '%s' and '%s', please use either %s::%s or %s::%s to resolve the ambiguity.\00", align 1
@.str.12 = private unnamed_addr constant [44 x i8] c"The %s needs a path prefix (e.g. '%s::%s').\00", align 1
@.str.13 = private unnamed_addr constant [107 x i8] c"The %s '%s' is defined in both '%s' and '%s', please use either %s::%s or %s::%s to resolve the ambiguity.\00", align 1
@.str.14 = private unnamed_addr constant [53 x i8] c"'%s::%s' could not be found, did you spell it right?\00", align 1
@.str.15 = private unnamed_addr constant [49 x i8] c"'%s' could not be found, did you spell it right?\00", align 1

; Function Attrs: nounwind uwtable
define internal void @sema_report_error_on_decl(ptr noundef %0, ptr noundef %1) #0 {
  %3 = alloca ptr, align 8
  %4 = alloca ptr, align 8
  %5 = alloca ptr, align 8
  %6 = alloca ptr, align 8
  %7 = alloca ptr, align 8
  %8 = alloca ptr, align 8
  %9 = alloca %union.SourceSpan, align 8
  %10 = alloca ptr, align 8
  %11 = alloca ptr, align 8
  %12 = alloca ptr, align 8
  %13 = alloca ptr, align 8
  %14 = alloca ptr, align 8
  %15 = alloca ptr, align 8
  %16 = alloca ptr, align 8
  store ptr %0, ptr %6, align 8
  store ptr %1, ptr %7, align 8
  %17 = load ptr, ptr %7, align 8
  %18 = getelementptr inbounds %struct.NameResolve, ptr %17, i32 0, i32 5
  %19 = load ptr, ptr %18, align 8
  store ptr %19, ptr %8, align 8
  %20 = load ptr, ptr %7, align 8
  %21 = getelementptr inbounds %struct.NameResolve, ptr %20, i32 0, i32 4
  call void @llvm.memcpy.p0.p0.i64(ptr align 8 %9, ptr align 8 %21, i64 8, i1 false)
  %22 = load ptr, ptr %7, align 8
  %23 = getelementptr inbounds %struct.NameResolve, ptr %22, i32 0, i32 3
  %24 = load ptr, ptr %23, align 8
  %25 = icmp ne ptr %24, null
  br i1 %25, label %26, label %32

26:                                               ; preds = %2
  %27 = load ptr, ptr %7, align 8
  %28 = getelementptr inbounds %struct.NameResolve, ptr %27, i32 0, i32 3
  %29 = load ptr, ptr %28, align 8
  %30 = getelementptr inbounds %struct.Path_, ptr %29, i32 0, i32 1
  %31 = load ptr, ptr %30, align 8
  br label %33

32:                                               ; preds = %2
  br label %33

33:                                               ; preds = %32, %26
  %34 = phi ptr [ %31, %26 ], [ null, %32 ]
  store ptr %34, ptr %10, align 8
  %35 = load ptr, ptr %6, align 8
  %36 = icmp ne ptr %35, null
  br i1 %36, label %61, label %37

37:                                               ; preds = %33
  %38 = load ptr, ptr %7, align 8
  %39 = getelementptr inbounds %struct.NameResolve, ptr %38, i32 0, i32 1
  %40 = load ptr, ptr %39, align 8
  %41 = icmp ne ptr %40, null
  br i1 %41, label %42, label %61

42:                                               ; preds = %37
  %43 = load ptr, ptr %7, align 8
  %44 = getelementptr inbounds %struct.NameResolve, ptr %43, i32 0, i32 1
  %45 = load ptr, ptr %44, align 8
  %46 = call ptr @decl_to_name(ptr noundef %45)
  store ptr %46, ptr %11, align 8
  %47 = load ptr, ptr %10, align 8
  %48 = icmp ne ptr %47, null
  br i1 %48, label %49, label %55

49:                                               ; preds = %42
  %50 = load ptr, ptr %11, align 8
  %51 = load ptr, ptr %10, align 8
  %52 = load ptr, ptr %8, align 8
  %53 = getelementptr inbounds %union.SourceSpan, ptr %9, i32 0, i32 0
  %54 = load i64, ptr %53, align 8
  call void (i64, ptr, ...) @sema_error_at(i64 %54, ptr noundef @.str.7, ptr noundef %50, ptr noundef %51, ptr noundef %52)
  br label %60

55:                                               ; preds = %42
  %56 = load ptr, ptr %11, align 8
  %57 = load ptr, ptr %8, align 8
  %58 = getelementptr inbounds %union.SourceSpan, ptr %9, i32 0, i32 0
  %59 = load i64, ptr %58, align 8
  call void (i64, ptr, ...) @sema_error_at(i64 %59, ptr noundef @.str.8, ptr noundef %56, ptr noundef %57)
  br label %60

60:                                               ; preds = %55, %49
  br label %205

61:                                               ; preds = %37, %33
  %62 = load ptr, ptr %6, align 8
  %63 = icmp ne ptr %62, null
  br i1 %63, label %112, label %64

64:                                               ; preds = %61
  %65 = load ptr, ptr %7, align 8
  %66 = getelementptr inbounds %struct.NameResolve, ptr %65, i32 0, i32 2
  %67 = load ptr, ptr %66, align 8
  %68 = icmp ne ptr %67, null
  br i1 %68, label %69, label %112

69:                                               ; preds = %64
  %70 = load ptr, ptr %7, align 8
  %71 = getelementptr inbounds %struct.NameResolve, ptr %70, i32 0, i32 2
  %72 = load ptr, ptr %71, align 8
  %73 = call ptr @decl_to_name(ptr noundef %72)
  store ptr %73, ptr %12, align 8
  %74 = load ptr, ptr %7, align 8
  %75 = getelementptr inbounds %struct.NameResolve, ptr %74, i32 0, i32 2
  %76 = load ptr, ptr %75, align 8
  store ptr %76, ptr %3, align 8
  %77 = load ptr, ptr %3, align 8
  %78 = getelementptr inbounds %struct.Decl_, ptr %77, i32 0, i32 8
  %79 = load ptr, ptr %78, align 8
  %80 = icmp ne ptr %79, null
  br i1 %80, label %81, label %86

81:                                               ; preds = %69
  %82 = load ptr, ptr %3, align 8
  %83 = getelementptr inbounds %struct.Decl_, ptr %82, i32 0, i32 8
  %84 = load ptr, ptr %83, align 8
  %85 = load ptr, ptr %84, align 8
  br label %88

86:                                               ; preds = %69
  %87 = load ptr, ptr getelementptr inbounds (%struct.GlobalContext, ptr @global_context, i32 0, i32 1), align 8
  br label %88

88:                                               ; preds = %86, %81
  %89 = phi ptr [ %85, %81 ], [ %87, %86 ]
  %90 = getelementptr inbounds %struct.Module_, ptr %89, i32 0, i32 0
  %91 = load ptr, ptr %90, align 8
  %92 = getelementptr inbounds %struct.Path_, ptr %91, i32 0, i32 1
  %93 = load ptr, ptr %92, align 8
  store ptr %93, ptr %13, align 8
  %94 = load ptr, ptr %10, align 8
  %95 = icmp ne ptr %94, null
  br i1 %95, label %96, label %104

96:                                               ; preds = %88
  %97 = load ptr, ptr %12, align 8
  %98 = load ptr, ptr %13, align 8
  %99 = load ptr, ptr %8, align 8
  %100 = load ptr, ptr %13, align 8
  %101 = load ptr, ptr %13, align 8
  %102 = getelementptr inbounds %union.SourceSpan, ptr %9, i32 0, i32 0
  %103 = load i64, ptr %102, align 8
  call void (i64, ptr, ...) @sema_error_at(i64 %103, ptr noundef @.str.9, ptr noundef %97, ptr noundef %98, ptr noundef %99, ptr noundef %100, ptr noundef %101)
  br label %111

104:                                              ; preds = %88
  %105 = load ptr, ptr %12, align 8
  %106 = load ptr, ptr %8, align 8
  %107 = load ptr, ptr %13, align 8
  %108 = load ptr, ptr %13, align 8
  %109 = getelementptr inbounds %union.SourceSpan, ptr %9, i32 0, i32 0
  %110 = load i64, ptr %109, align 8
  call void (i64, ptr, ...) @sema_error_at(i64 %110, ptr noundef @.str.10, ptr noundef %105, ptr noundef %106, ptr noundef %107, ptr noundef %108)
  br label %111

111:                                              ; preds = %104, %96
  br label %205

112:                                              ; preds = %64, %61
  %113 = load ptr, ptr %7, align 8
  %114 = getelementptr inbounds %struct.NameResolve, ptr %113, i32 0, i32 0
  %115 = load ptr, ptr %114, align 8
  %116 = icmp ne ptr %115, null
  br i1 %116, label %117, label %193

117:                                              ; preds = %112
  %118 = load ptr, ptr %6, align 8
  %119 = call ptr @decl_to_name(ptr noundef %118)
  store ptr %119, ptr %14, align 8
  %120 = load ptr, ptr %6, align 8
  store ptr %120, ptr %4, align 8
  %121 = load ptr, ptr %4, align 8
  %122 = getelementptr inbounds %struct.Decl_, ptr %121, i32 0, i32 8
  %123 = load ptr, ptr %122, align 8
  %124 = icmp ne ptr %123, null
  br i1 %124, label %125, label %130

125:                                              ; preds = %117
  %126 = load ptr, ptr %4, align 8
  %127 = getelementptr inbounds %struct.Decl_, ptr %126, i32 0, i32 8
  %128 = load ptr, ptr %127, align 8
  %129 = load ptr, ptr %128, align 8
  br label %132

130:                                              ; preds = %117
  %131 = load ptr, ptr getelementptr inbounds (%struct.GlobalContext, ptr @global_context, i32 0, i32 1), align 8
  br label %132

132:                                              ; preds = %130, %125
  %133 = phi ptr [ %129, %125 ], [ %131, %130 ]
  %134 = getelementptr inbounds %struct.Module_, ptr %133, i32 0, i32 0
  %135 = load ptr, ptr %134, align 8
  %136 = getelementptr inbounds %struct.Path_, ptr %135, i32 0, i32 1
  %137 = load ptr, ptr %136, align 8
  store ptr %137, ptr %15, align 8
  %138 = load ptr, ptr %7, align 8
  %139 = getelementptr inbounds %struct.NameResolve, ptr %138, i32 0, i32 0
  %140 = load ptr, ptr %139, align 8
  store ptr %140, ptr %5, align 8
  %141 = load ptr, ptr %5, align 8
  %142 = getelementptr inbounds %struct.Decl_, ptr %141, i32 0, i32 8
  %143 = load ptr, ptr %142, align 8
  %144 = icmp ne ptr %143, null
  br i1 %144, label %145, label %150

145:                                              ; preds = %132
  %146 = load ptr, ptr %5, align 8
  %147 = getelementptr inbounds %struct.Decl_, ptr %146, i32 0, i32 8
  %148 = load ptr, ptr %147, align 8
  %149 = load ptr, ptr %148, align 8
  br label %152

150:                                              ; preds = %132
  %151 = load ptr, ptr getelementptr inbounds (%struct.GlobalContext, ptr @global_context, i32 0, i32 1), align 8
  br label %152

152:                                              ; preds = %150, %145
  %153 = phi ptr [ %149, %145 ], [ %151, %150 ]
  %154 = getelementptr inbounds %struct.Module_, ptr %153, i32 0, i32 0
  %155 = load ptr, ptr %154, align 8
  %156 = getelementptr inbounds %struct.Path_, ptr %155, i32 0, i32 1
  %157 = load ptr, ptr %156, align 8
  store ptr %157, ptr %16, align 8
  %158 = load ptr, ptr %10, align 8
  %159 = icmp ne ptr %158, null
  br i1 %159, label %160, label %172

160:                                              ; preds = %152
  %161 = load ptr, ptr %14, align 8
  %162 = load ptr, ptr %10, align 8
  %163 = load ptr, ptr %8, align 8
  %164 = load ptr, ptr %15, align 8
  %165 = load ptr, ptr %16, align 8
  %166 = load ptr, ptr %15, align 8
  %167 = load ptr, ptr %8, align 8
  %168 = load ptr, ptr %16, align 8
  %169 = load ptr, ptr %8, align 8
  %170 = getelementptr inbounds %union.SourceSpan, ptr %9, i32 0, i32 0
  %171 = load i64, ptr %170, align 8
  call void (i64, ptr, ...) @sema_error_at(i64 %171, ptr noundef @.str.11, ptr noundef %161, ptr noundef %162, ptr noundef %163, ptr noundef %164, ptr noundef %165, ptr noundef %166, ptr noundef %167, ptr noundef %168, ptr noundef %169)
  br label %192

172:                                              ; preds = %152
  %173 = load ptr, ptr %6, align 8
  %174 = call zeroext i1 @decl_needs_prefix(ptr noundef %173)
  br i1 %174, label %175, label %181

175:                                              ; preds = %172
  %176 = load ptr, ptr %14, align 8
  %177 = load ptr, ptr %15, align 8
  %178 = load ptr, ptr %8, align 8
  %179 = getelementptr inbounds %union.SourceSpan, ptr %9, i32 0, i32 0
  %180 = load i64, ptr %179, align 8
  call void (i64, ptr, ...) @sema_error_at(i64 %180, ptr noundef @.str.12, ptr noundef %176, ptr noundef %177, ptr noundef %178)
  br label %205

181:                                              ; preds = %172
  %182 = load ptr, ptr %14, align 8
  %183 = load ptr, ptr %8, align 8
  %184 = load ptr, ptr %15, align 8
  %185 = load ptr, ptr %16, align 8
  %186 = load ptr, ptr %15, align 8
  %187 = load ptr, ptr %8, align 8
  %188 = load ptr, ptr %16, align 8
  %189 = load ptr, ptr %8, align 8
  %190 = getelementptr inbounds %union.SourceSpan, ptr %9, i32 0, i32 0
  %191 = load i64, ptr %190, align 8
  call void (i64, ptr, ...) @sema_error_at(i64 %191, ptr noundef @.str.13, ptr noundef %182, ptr noundef %183, ptr noundef %184, ptr noundef %185, ptr noundef %186, ptr noundef %187, ptr noundef %188, ptr noundef %189)
  br label %192

192:                                              ; preds = %181, %160
  br label %205

193:                                              ; preds = %112
  %194 = load ptr, ptr %10, align 8
  %195 = icmp ne ptr %194, null
  br i1 %195, label %196, label %201

196:                                              ; preds = %193
  %197 = load ptr, ptr %10, align 8
  %198 = load ptr, ptr %8, align 8
  %199 = getelementptr inbounds %union.SourceSpan, ptr %9, i32 0, i32 0
  %200 = load i64, ptr %199, align 8
  call void (i64, ptr, ...) @sema_error_at(i64 %200, ptr noundef @.str.14, ptr noundef %197, ptr noundef %198)
  br label %205

201:                                              ; preds = %193
  %202 = load ptr, ptr %8, align 8
  %203 = getelementptr inbounds %union.SourceSpan, ptr %9, i32 0, i32 0
  %204 = load i64, ptr %203, align 8
  call void (i64, ptr, ...) @sema_error_at(i64 %204, ptr noundef @.str.15, ptr noundef %202)
  br label %205

205:                                              ; preds = %201, %196, %192, %175, %111, %60
  ret void
}