; Function Attrs: nounwind uwtable
define internal fastcc void @sema_report_error_on_decl(ptr noundef %0, ptr nocapture noundef readonly %1) unnamed_addr #2 {
  %3 = getelementptr inbounds i8, ptr %1, i64 40
  %4 = load ptr, ptr %3, align 8
  %5 = getelementptr inbounds i8, ptr %1, i64 32
  %.sroa.0.0.copyload = load i64, ptr %5, align 8
  %6 = getelementptr inbounds i8, ptr %1, i64 24
  %7 = load ptr, ptr %6, align 8
  %.not = icmp eq ptr %7, null
  br i1 %.not, label %11, label %8

8:                                                ; preds = %2
  %9 = getelementptr inbounds i8, ptr %7, i64 8
  %10 = load ptr, ptr %9, align 8
  br label %11

11:                                               ; preds = %2, %8
  %12 = phi ptr [ %10, %8 ], [ null, %2 ]
  %.not77 = icmp eq ptr %0, null
  br i1 %.not77, label %13, label %.critedge

13:                                               ; preds = %11
  %14 = getelementptr inbounds i8, ptr %1, i64 8
  %15 = load ptr, ptr %14, align 8
  %.not78 = icmp eq ptr %15, null
  br i1 %.not78, label %20, label %16

16:                                               ; preds = %13
  %17 = tail call ptr @decl_to_name(ptr noundef nonnull %15) #10
  %.not79 = icmp eq ptr %12, null
  br i1 %.not79, label %19, label %18

18:                                               ; preds = %16
  tail call void (i64, ptr, ...) @sema_error_at(i64 %.sroa.0.0.copyload, ptr noundef nonnull @.str.7, ptr noundef %17, ptr noundef nonnull %12, ptr noundef %4) #10
  br label %58

19:                                               ; preds = %16
  tail call void (i64, ptr, ...) @sema_error_at(i64 %.sroa.0.0.copyload, ptr noundef nonnull @.str.8, ptr noundef %17, ptr noundef %4) #10
  br label %58

20:                                               ; preds = %13
  %21 = getelementptr inbounds i8, ptr %1, i64 16
  %22 = load ptr, ptr %21, align 8
  %.not80 = icmp eq ptr %22, null
  br i1 %.not80, label %.critedge, label %23

23:                                               ; preds = %20
  %24 = tail call ptr @decl_to_name(ptr noundef nonnull %22) #10
  %25 = load ptr, ptr %21, align 8
  %26 = getelementptr inbounds i8, ptr %25, i64 56
  %27 = load ptr, ptr %26, align 8
  %.not81 = icmp eq ptr %27, null
  %. = select i1 %.not81, ptr getelementptr inbounds (%struct.GlobalContext, ptr @global_context, i64 0, i32 1), ptr %27
  %28 = load ptr, ptr %., align 8
  %29 = load ptr, ptr %28, align 8
  %30 = getelementptr inbounds i8, ptr %29, i64 8
  %31 = load ptr, ptr %30, align 8
  %.not82 = icmp eq ptr %12, null
  br i1 %.not82, label %33, label %32

32:                                               ; preds = %23
  tail call void (i64, ptr, ...) @sema_error_at(i64 %.sroa.0.0.copyload, ptr noundef nonnull @.str.9, ptr noundef %24, ptr noundef %31, ptr noundef %4, ptr noundef %31, ptr noundef %31) #10
  br label %58

33:                                               ; preds = %23
  tail call void (i64, ptr, ...) @sema_error_at(i64 %.sroa.0.0.copyload, ptr noundef nonnull @.str.10, ptr noundef %24, ptr noundef %4, ptr noundef %31, ptr noundef %31) #10
  br label %58

.critedge:                                        ; preds = %11, %20
  %34 = load ptr, ptr %1, align 8
  %.not83 = icmp eq ptr %34, null
  br i1 %.not83, label %55, label %35

35:                                               ; preds = %.critedge
  %36 = tail call ptr @decl_to_name(ptr noundef %0) #10
  %37 = getelementptr inbounds i8, ptr %0, i64 56
  %38 = load ptr, ptr %37, align 8
  %.not85 = icmp eq ptr %38, null
  %.90 = select i1 %.not85, ptr getelementptr inbounds (%struct.GlobalContext, ptr @global_context, i64 0, i32 1), ptr %38
  %39 = load ptr, ptr %.90, align 8
  %40 = load ptr, ptr %39, align 8
  %41 = getelementptr inbounds i8, ptr %40, i64 8
  %42 = load ptr, ptr %41, align 8
  %43 = load ptr, ptr %1, align 8
  %44 = getelementptr inbounds i8, ptr %43, i64 56
  %45 = load ptr, ptr %44, align 8
  %.not87 = icmp eq ptr %45, null
  %.in88 = select i1 %.not87, ptr getelementptr inbounds (%struct.GlobalContext, ptr @global_context, i64 0, i32 1), ptr %45
  %46 = load ptr, ptr %.in88, align 8
  %47 = load ptr, ptr %46, align 8
  %48 = getelementptr inbounds i8, ptr %47, i64 8
  %49 = load ptr, ptr %48, align 8
  %.not89 = icmp eq ptr %12, null
  br i1 %.not89, label %51, label %50

50:                                               ; preds = %35
  tail call void (i64, ptr, ...) @sema_error_at(i64 %.sroa.0.0.copyload, ptr noundef nonnull @.str.11, ptr noundef %36, ptr noundef nonnull %12, ptr noundef %4, ptr noundef %42, ptr noundef %49, ptr noundef %42, ptr noundef %4, ptr noundef %49, ptr noundef %4) #10
  br label %58

51:                                               ; preds = %35
  %52 = tail call zeroext i1 @decl_needs_prefix(ptr noundef nonnull %0) #10
  br i1 %52, label %53, label %54

53:                                               ; preds = %51
  tail call void (i64, ptr, ...) @sema_error_at(i64 %.sroa.0.0.copyload, ptr noundef nonnull @.str.12, ptr noundef %36, ptr noundef %42, ptr noundef %4) #10
  br label %58

54:                                               ; preds = %51
  tail call void (i64, ptr, ...) @sema_error_at(i64 %.sroa.0.0.copyload, ptr noundef nonnull @.str.13, ptr noundef %36, ptr noundef %4, ptr noundef %42, ptr noundef %49, ptr noundef %42, ptr noundef %4, ptr noundef %49, ptr noundef %4) #10
  br label %58

55:                                               ; preds = %.critedge
  %.not84 = icmp eq ptr %12, null
  br i1 %.not84, label %57, label %56

56:                                               ; preds = %55
  tail call void (i64, ptr, ...) @sema_error_at(i64 %.sroa.0.0.copyload, ptr noundef nonnull @.str.14, ptr noundef nonnull %12, ptr noundef %4) #10
  br label %58

57:                                               ; preds = %55
  tail call void (i64, ptr, ...) @sema_error_at(i64 %.sroa.0.0.copyload, ptr noundef nonnull @.str.15, ptr noundef %4) #10
  br label %58

58:                                               ; preds = %50, %54, %32, %33, %18, %19, %57, %56, %53
  ret void
}